; Function Attrs: mustprogress nofree norecurse nosync nounwind memory(argmem: readwrite) uwtable
define internal fastcc void @_ZN3url12_GLOBAL__N_118DoParseStandardURLItEEvPKT_iPNS_6ParsedE(ptr noundef readonly captures(none) %0, i32 noundef %1, ptr noundef writeonly captures(none) %2) unnamed_addr #6 {
  %4 = icmp sgt i32 %1, 0
  br i1 %4, label %.lr.ph.i.preheader, label %.critedge.i7

.lr.ph.i.preheader:                               ; preds = %3
  %5 = load i16, ptr %0, align 2, !tbaa !25
  %6 = icmp ult i16 %5, 33
  br i1 %6, label %.lr.ph, label %.lr.ph14.preheader.i

.lr.ph:                                           ; preds = %.lr.ph.i.preheader
  %7 = zext nneg i32 %1 to i64
  %8 = add nsw i64 %7, -1
  br label %12

.lr.ph.i:                                         ; preds = %12
  %indvars.iv.next.i = add nuw nsw i64 %indvars.iv.i39, 1
  %9 = getelementptr inbounds nuw i16, ptr %0, i64 %indvars.iv.next.i
  %10 = load i16, ptr %9, align 2, !tbaa !25
  %11 = icmp ult i16 %10, 33
  br i1 %11, label %12, label %.critedge.i, !llvm.loop !47

12:                                               ; preds = %.lr.ph, %.lr.ph.i
  %indvars.iv.i39 = phi i64 [ 0, %.lr.ph ], [ %indvars.iv.next.i, %.lr.ph.i ]
  %exitcond.not = icmp eq i64 %indvars.iv.i39, %8
  br i1 %exitcond.not, label %_ZN3url7TrimURLItEEvPKT_PiS4_b.exit, label %.lr.ph.i, !llvm.loop !47

.critedge.i:                                      ; preds = %.lr.ph.i
  %13 = trunc nsw i64 %indvars.iv.next.i to i32
  %14 = icmp sgt i32 %1, %13
  br i1 %14, label %.lr.ph14.preheader.i, label %_ZN3url7TrimURLItEEvPKT_PiS4_b.exit

.lr.ph14.preheader.i:                             ; preds = %.lr.ph.i.preheader, %.critedge.i
  %.01853 = phi i32 [ %13, %.critedge.i ], [ 0, %.lr.ph.i.preheader ]
  %invariant.gep.i55 = getelementptr i8, ptr %0, i64 -2
  %15 = zext nneg i32 %1 to i64
  %gep.i41 = getelementptr i16, ptr %invariant.gep.i55, i64 %15
  %16 = load i16, ptr %gep.i41, align 2, !tbaa !25
  %17 = icmp ult i16 %16, 33
  br i1 %17, label %.lr.ph43, label %_ZN3url7TrimURLItEEvPKT_PiS4_b.exit

.lr.ph43:                                         ; preds = %.lr.ph14.preheader.i
  %18 = sext i32 %.01853 to i64
  br label %21

.lr.ph14.i:                                       ; preds = %21
  %gep.i = getelementptr i16, ptr %invariant.gep.i55, i64 %indvars.iv.next18.i
  %19 = load i16, ptr %gep.i, align 2, !tbaa !25
  %20 = icmp ult i16 %19, 33
  br i1 %20, label %21, label %_ZN3url7TrimURLItEEvPKT_PiS4_b.exit.loopexit.split.loop.exit, !llvm.loop !48

21:                                               ; preds = %.lr.ph43, %.lr.ph14.i
  %indvars.iv17.i42 = phi i64 [ %15, %.lr.ph43 ], [ %indvars.iv.next18.i, %.lr.ph14.i ]
  %indvars.iv.next18.i = add nsw i64 %indvars.iv17.i42, -1
  %22 = icmp sgt i64 %indvars.iv.next18.i, %18
  br i1 %22, label %.lr.ph14.i, label %_ZN3url7TrimURLItEEvPKT_PiS4_b.exit, !llvm.loop !48

_ZN3url7TrimURLItEEvPKT_PiS4_b.exit.loopexit.split.loop.exit: ; preds = %.lr.ph14.i
  %23 = trunc nsw i64 %indvars.iv.next18.i to i32
  br label %_ZN3url7TrimURLItEEvPKT_PiS4_b.exit

_ZN3url7TrimURLItEEvPKT_PiS4_b.exit:              ; preds = %12, %21, %_ZN3url7TrimURLItEEvPKT_PiS4_b.exit.loopexit.split.loop.exit, %.lr.ph14.preheader.i, %.critedge.i
  %.01854 = phi i32 [ %13, %.critedge.i ], [ %.01853, %.lr.ph14.preheader.i ], [ %.01853, %_ZN3url7TrimURLItEEvPKT_PiS4_b.exit.loopexit.split.loop.exit ], [ %.01853, %21 ], [ %1, %12 ]
  %.120 = phi i32 [ %1, %.critedge.i ], [ %1, %.lr.ph14.preheader.i ], [ %23, %_ZN3url7TrimURLItEEvPKT_PiS4_b.exit.loopexit.split.loop.exit ], [ %.01853, %21 ], [ %1, %12 ]
  %24 = icmp sgt i32 %.120, 0
  br i1 %24, label %.lr.ph.preheader.i8, label %.critedge.i7

.lr.ph.preheader.i8:                              ; preds = %_ZN3url7TrimURLItEEvPKT_PiS4_b.exit
  %wide.trip.count.i = zext nneg i32 %.120 to i64
  br label %.lr.ph.i9

.lr.ph.i9:                                        ; preds = %28, %.lr.ph.preheader.i8
  %indvars.iv.i10 = phi i64 [ 0, %.lr.ph.preheader.i8 ], [ %indvars.iv.next.i11, %28 ]
  %25 = getelementptr inbounds nuw i16, ptr %0, i64 %indvars.iv.i10
  %26 = load i16, ptr %25, align 2, !tbaa !25
  %27 = icmp ult i16 %26, 33
  br i1 %27, label %28, label %.critedge.loopexit.i

28:                                               ; preds = %.lr.ph.i9
  %indvars.iv.next.i11 = add nuw nsw i64 %indvars.iv.i10, 1
  %exitcond.not.i = icmp eq i64 %indvars.iv.next.i11, %wide.trip.count.i
  br i1 %exitcond.not.i, label %.loopexit, label %.lr.ph.i9, !llvm.loop !27

.critedge.loopexit.i:                             ; preds = %.lr.ph.i9
  %29 = trunc nuw nsw i64 %indvars.iv.i10 to i32
  br label %.critedge.i7

.critedge.i7:                                     ; preds = %3, %.critedge.loopexit.i, %_ZN3url7TrimURLItEEvPKT_PiS4_b.exit
  %.12028 = phi i32 [ %.120, %_ZN3url7TrimURLItEEvPKT_PiS4_b.exit ], [ %.120, %.critedge.loopexit.i ], [ %1, %3 ]
  %.0182327 = phi i32 [ %.01854, %_ZN3url7TrimURLItEEvPKT_PiS4_b.exit ], [ %.01854, %.critedge.loopexit.i ], [ 0, %3 ]
  %.019.lcssa.i = phi i32 [ 0, %_ZN3url7TrimURLItEEvPKT_PiS4_b.exit ], [ %29, %.critedge.loopexit.i ], [ 0, %3 ]
  %.not25.i = icmp slt i32 %.019.lcssa.i, %.12028
  br i1 %.not25.i, label %.lr.ph27.preheader.i, label %.loopexit

.lr.ph27.preheader.i:                             ; preds = %.critedge.i7
  %30 = zext i32 %.019.lcssa.i to i64
  %wide.trip.count = zext i32 %.12028 to i64
  br label %.lr.ph27.i

.lr.ph27.i:                                       ; preds = %34, %.lr.ph27.preheader.i
  %indvars.iv30.i = phi i64 [ %30, %.lr.ph27.preheader.i ], [ %indvars.iv.next31.i, %34 ]
  %31 = getelementptr inbounds nuw i16, ptr %0, i64 %indvars.iv30.i
  %32 = load i16, ptr %31, align 2, !tbaa !25
  %33 = icmp eq i16 %32, 58
  br i1 %33, label %35, label %34

34:                                               ; preds = %.lr.ph27.i
  %indvars.iv.next31.i = add nuw nsw i64 %indvars.iv30.i, 1
  %exitcond50.not = icmp eq i64 %indvars.iv.next31.i, %wide.trip.count
  br i1 %exitcond50.not, label %.loopexit, label %.lr.ph27.i, !llvm.loop !28

35:                                               ; preds = %.lr.ph27.i
  %36 = trunc nuw i64 %indvars.iv30.i to i32
  %37 = sub nsw i32 %36, %.019.lcssa.i
  %.sroa.2.0.insert.ext.i.i = zext i32 %37 to i64
  %.sroa.2.0.insert.shift.i.i = shl nuw i64 %.sroa.2.0.insert.ext.i.i, 32
  %.sroa.0.0.insert.insert.i.i = or disjoint i64 %.sroa.2.0.insert.shift.i.i, %30
  store i64 %.sroa.0.0.insert.insert.i.i, ptr %2, align 4
  %38 = add i32 %36, 1
  br label %40

.loopexit:                                        ; preds = %28, %34, %.critedge.i7
  %.12029.ph = phi i32 [ %.12028, %.critedge.i7 ], [ %.12028, %34 ], [ %.120, %28 ]
  %.0182326.ph = phi i32 [ %.0182327, %.critedge.i7 ], [ %.0182327, %34 ], [ %.01854, %28 ]
  store i32 0, ptr %2, align 4, !tbaa !3
  %39 = getelementptr inbounds nuw i8, ptr %2, i64 4
  store i32 -1, ptr %39, align 4, !tbaa !8
  br label %40

40:                                               ; preds = %.loopexit, %35
  %.1202933 = phi i32 [ %.12028, %35 ], [ %.12029.ph, %.loopexit ]
  %.0 = phi i32 [ %38, %35 ], [ %.0182326.ph, %.loopexit ]
  tail call fastcc void @_ZN3url12_GLOBAL__N_118DoParseAfterSchemeItEEvPKT_iiPNS_6ParsedE(ptr noundef %0, i32 noundef %.1202933, i32 noundef %.0, ptr noundef nonnull %2)
  ret void
}